; Function Attrs: nofree norecurse nosync nounwind memory(none) uwtable
define nonnull ptr @lv_cache_entry_get_entry(ptr noundef readnone captures(address_is_null, ret: address, provenance) %0, i32 noundef %1) local_unnamed_addr #4 {
  %.not = icmp eq ptr %0, null
  br i1 %.not, label %.preheader, label %3

.preheader:                                       ; preds = %2, %.preheader
  br label %.preheader

3:                                                ; preds = %2
  %4 = zext i32 %1 to i64
  %5 = getelementptr inbounds nuw i8, ptr %0, i64 %4
  ret ptr %5
}